target datalayout = "e-m:e-p270:32:32-p271:32:32-p272:64:64-i64:64-i128:128-f80:128-n8:16:32:64-S128"
target triple = "x86_64-pc-linux-gnu"

%struct.linenoiseState = type { i32, i32, ptr, i64, ptr, ptr, i64, i64, i64, i64, i64, i64, i32 }

; Function Attrs: nounwind uwtable
define dso_local void @linenoiseEditBackspace(ptr noundef %0) #0 {
  %2 = alloca ptr, align 8
  store ptr %0, ptr %2, align 8, !tbaa !23
  %3 = load ptr, ptr %2, align 8, !tbaa !23
  %4 = getelementptr inbounds nuw %struct.linenoiseState, ptr %3, i32 0, i32 7
  %5 = load i64, ptr %4, align 8, !tbaa !34
  %6 = icmp ugt i64 %5, 0
  br i1 %6, label %7, label %51

7:                                                ; preds = %1
  %8 = load ptr, ptr %2, align 8, !tbaa !23
  %9 = getelementptr inbounds nuw %struct.linenoiseState, ptr %8, i32 0, i32 9
  %10 = load i64, ptr %9, align 8, !tbaa !25
  %11 = icmp ugt i64 %10, 0
  br i1 %11, label %12, label %51

12:                                               ; preds = %7
  %13 = load ptr, ptr %2, align 8, !tbaa !23
  %14 = getelementptr inbounds nuw %struct.linenoiseState, ptr %13, i32 0, i32 2
  %15 = load ptr, ptr %14, align 8, !tbaa !28
  %16 = load ptr, ptr %2, align 8, !tbaa !23
  %17 = getelementptr inbounds nuw %struct.linenoiseState, ptr %16, i32 0, i32 7
  %18 = load i64, ptr %17, align 8, !tbaa !34
  %19 = getelementptr inbounds nuw i8, ptr %15, i64 %18
  %20 = getelementptr inbounds i8, ptr %19, i64 -1
  %21 = load ptr, ptr %2, align 8, !tbaa !23
  %22 = getelementptr inbounds nuw %struct.linenoiseState, ptr %21, i32 0, i32 2
  %23 = load ptr, ptr %22, align 8, !tbaa !28
  %24 = load ptr, ptr %2, align 8, !tbaa !23
  %25 = getelementptr inbounds nuw %struct.linenoiseState, ptr %24, i32 0, i32 7
  %26 = load i64, ptr %25, align 8, !tbaa !34
  %27 = getelementptr inbounds nuw i8, ptr %23, i64 %26
  %28 = load ptr, ptr %2, align 8, !tbaa !23
  %29 = getelementptr inbounds nuw %struct.linenoiseState, ptr %28, i32 0, i32 9
  %30 = load i64, ptr %29, align 8, !tbaa !25
  %31 = load ptr, ptr %2, align 8, !tbaa !23
  %32 = getelementptr inbounds nuw %struct.linenoiseState, ptr %31, i32 0, i32 7
  %33 = load i64, ptr %32, align 8, !tbaa !34
  %34 = sub i64 %30, %33
  call void @llvm.memmove.p0.p0.i64(ptr align 1 %20, ptr align 1 %27, i64 %34, i1 false)
  %35 = load ptr, ptr %2, align 8, !tbaa !23
  %36 = getelementptr inbounds nuw %struct.linenoiseState, ptr %35, i32 0, i32 7
  %37 = load i64, ptr %36, align 8, !tbaa !34
  %38 = add i64 %37, -1
  store i64 %38, ptr %36, align 8, !tbaa !34
  %39 = load ptr, ptr %2, align 8, !tbaa !23
  %40 = getelementptr inbounds nuw %struct.linenoiseState, ptr %39, i32 0, i32 9
  %41 = load i64, ptr %40, align 8, !tbaa !25
  %42 = add i64 %41, -1
  store i64 %42, ptr %40, align 8, !tbaa !25
  %43 = load ptr, ptr %2, align 8, !tbaa !23
  %44 = getelementptr inbounds nuw %struct.linenoiseState, ptr %43, i32 0, i32 2
  %45 = load ptr, ptr %44, align 8, !tbaa !28
  %46 = load ptr, ptr %2, align 8, !tbaa !23
  %47 = getelementptr inbounds nuw %struct.linenoiseState, ptr %46, i32 0, i32 9
  %48 = load i64, ptr %47, align 8, !tbaa !25
  %49 = getelementptr inbounds nuw i8, ptr %45, i64 %48
  store i8 0, ptr %49, align 1, !tbaa !29
  %50 = load ptr, ptr %2, align 8, !tbaa !23
  call void @refreshLine(ptr noundef %50)
  br label %51

51:                                               ; preds = %12, %7, %1
  ret void
}