; Function Attrs: nounwind uwtable
define dso_local void @linenoiseEditBackspace(ptr noundef captures(none) %0) local_unnamed_addr #10 {
  %2 = getelementptr inbounds nuw i8, ptr %0, i64 48
  %3 = load i64, ptr %2, align 8, !tbaa !26
  %.not = icmp eq i64 %3, 0
  br i1 %.not, label %19, label %4

4:                                                ; preds = %1
  %5 = getelementptr inbounds nuw i8, ptr %0, i64 64
  %6 = load i64, ptr %5, align 8, !tbaa !17
  %.not14 = icmp eq i64 %6, 0
  br i1 %.not14, label %19, label %7

7:                                                ; preds = %4
  %8 = getelementptr inbounds nuw i8, ptr %0, i64 8
  %9 = load ptr, ptr %8, align 8, !tbaa !20
  %10 = getelementptr inbounds nuw i8, ptr %9, i64 %3
  %11 = getelementptr inbounds i8, ptr %10, i64 -1
  %12 = sub i64 %6, %3
  tail call void @llvm.memmove.p0.p0.i64(ptr nonnull align 1 %11, ptr nonnull align 1 %10, i64 %12, i1 false)
  %13 = load i64, ptr %2, align 8, !tbaa !26
  %14 = add i64 %13, -1
  store i64 %14, ptr %2, align 8, !tbaa !26
  %15 = load i64, ptr %5, align 8, !tbaa !17
  %16 = add i64 %15, -1
  store i64 %16, ptr %5, align 8, !tbaa !17
  %17 = load ptr, ptr %8, align 8, !tbaa !20
  %18 = getelementptr inbounds nuw i8, ptr %17, i64 %16
  store i8 0, ptr %18, align 1, !tbaa !21
  tail call fastcc void @refreshLine(ptr noundef nonnull %0)
  br label %19

19:                                               ; preds = %7, %4, %1
  ret void
}